target datalayout = "e-m:e-p270:32:32-p271:32:32-p272:64:64-i64:64-i128:128-f80:128-n8:16:32:64-S128"
target triple = "x86_64-pc-linux-gnu"

%struct.AF_GlyphHintsRec_ = type { ptr, i64, i64, i64, i64, i32, i32, ptr, i32, i32, ptr, [2 x %struct.AF_AxisHintsRec_], i32, i32, ptr, %struct.anon.0 }
%struct.AF_AxisHintsRec_ = type { i32, i32, ptr, i32, i32, ptr, i32, %struct.anon }
%struct.anon = type { [18 x %struct.AF_SegmentRec_], [12 x %struct.AF_EdgeRec_] }
%struct.AF_SegmentRec_ = type { i8, i8, i16, i16, i16, i16, i16, ptr, ptr, ptr, ptr, i64, i64, ptr, ptr }
%struct.AF_EdgeRec_ = type { i16, i64, i64, i8, i8, i64, ptr, ptr, ptr, i32, ptr, ptr }
%struct.anon.0 = type { [8 x ptr], [96 x %struct.AF_PointRec_] }
%struct.AF_PointRec_ = type { i16, i8, i8, i64, i64, i16, i16, i64, i64, i64, i64, ptr, ptr }
%struct.FT_Vector_ = type { i64, i64 }
%struct.FT_Outline_ = type { i16, i16, ptr, ptr, ptr, i32 }

; Function Attrs: nounwind uwtable
define internal void @af_glyph_hints_save(ptr noundef %0, ptr noundef %1) #0 {
  %3 = alloca ptr, align 8
  %4 = alloca ptr, align 8
  %5 = alloca ptr, align 8
  %6 = alloca ptr, align 8
  %7 = alloca ptr, align 8
  %8 = alloca ptr, align 8
  store ptr %0, ptr %3, align 8, !tbaa !48
  store ptr %1, ptr %4, align 8, !tbaa !63
  call void @llvm.lifetime.start.p0(i64 8, ptr %5) #10
  %9 = load ptr, ptr %3, align 8, !tbaa !48
  %10 = getelementptr inbounds nuw %struct.AF_GlyphHintsRec_, ptr %9, i32 0, i32 7
  %11 = load ptr, ptr %10, align 8, !tbaa !244
  store ptr %11, ptr %5, align 8, !tbaa !246
  call void @llvm.lifetime.start.p0(i64 8, ptr %6) #10
  %12 = load ptr, ptr %5, align 8, !tbaa !246
  %13 = load ptr, ptr %3, align 8, !tbaa !48
  %14 = getelementptr inbounds nuw %struct.AF_GlyphHintsRec_, ptr %13, i32 0, i32 6
  %15 = load i32, ptr %14, align 4, !tbaa !238
  %16 = sext i32 %15 to i64
  %17 = getelementptr inbounds %struct.AF_PointRec_, ptr %12, i64 %16
  store ptr %17, ptr %6, align 8, !tbaa !246
  call void @llvm.lifetime.start.p0(i64 8, ptr %7) #10
  %18 = load ptr, ptr %4, align 8, !tbaa !63
  %19 = getelementptr inbounds nuw %struct.FT_Outline_, ptr %18, i32 0, i32 2
  %20 = load ptr, ptr %19, align 8, !tbaa !217
  store ptr %20, ptr %7, align 8, !tbaa !215
  call void @llvm.lifetime.start.p0(i64 8, ptr %8) #10
  %21 = load ptr, ptr %4, align 8, !tbaa !63
  %22 = getelementptr inbounds nuw %struct.FT_Outline_, ptr %21, i32 0, i32 3
  %23 = load ptr, ptr %22, align 8, !tbaa !248
  store ptr %23, ptr %8, align 8, !tbaa !123
  br label %24

24:                                               ; preds = %63, %2
  %25 = load ptr, ptr %5, align 8, !tbaa !246
  %26 = load ptr, ptr %6, align 8, !tbaa !246
  %27 = icmp ult ptr %25, %26
  br i1 %27, label %28, label %70

28:                                               ; preds = %24
  %29 = load ptr, ptr %5, align 8, !tbaa !246
  %30 = getelementptr inbounds nuw %struct.AF_PointRec_, ptr %29, i32 0, i32 7
  %31 = load i64, ptr %30, align 8, !tbaa !254
  %32 = load ptr, ptr %7, align 8, !tbaa !215
  %33 = getelementptr inbounds nuw %struct.FT_Vector_, ptr %32, i32 0, i32 0
  store i64 %31, ptr %33, align 8, !tbaa !220
  %34 = load ptr, ptr %5, align 8, !tbaa !246
  %35 = getelementptr inbounds nuw %struct.AF_PointRec_, ptr %34, i32 0, i32 8
  %36 = load i64, ptr %35, align 8, !tbaa !256
  %37 = load ptr, ptr %7, align 8, !tbaa !215
  %38 = getelementptr inbounds nuw %struct.FT_Vector_, ptr %37, i32 0, i32 1
  store i64 %36, ptr %38, align 8, !tbaa !223
  %39 = load ptr, ptr %5, align 8, !tbaa !246
  %40 = getelementptr inbounds nuw %struct.AF_PointRec_, ptr %39, i32 0, i32 0
  %41 = load i16, ptr %40, align 8, !tbaa !258
  %42 = zext i16 %41 to i32
  %43 = and i32 %42, 1
  %44 = icmp ne i32 %43, 0
  br i1 %44, label %45, label %48

45:                                               ; preds = %28
  %46 = load ptr, ptr %8, align 8, !tbaa !123
  %47 = getelementptr inbounds i8, ptr %46, i64 0
  store i8 0, ptr %47, align 1, !tbaa !127
  br label %62

48:                                               ; preds = %28
  %49 = load ptr, ptr %5, align 8, !tbaa !246
  %50 = getelementptr inbounds nuw %struct.AF_PointRec_, ptr %49, i32 0, i32 0
  %51 = load i16, ptr %50, align 8, !tbaa !258
  %52 = zext i16 %51 to i32
  %53 = and i32 %52, 2
  %54 = icmp ne i32 %53, 0
  br i1 %54, label %55, label %58

55:                                               ; preds = %48
  %56 = load ptr, ptr %8, align 8, !tbaa !123
  %57 = getelementptr inbounds i8, ptr %56, i64 0
  store i8 2, ptr %57, align 1, !tbaa !127
  br label %61

58:                                               ; preds = %48
  %59 = load ptr, ptr %8, align 8, !tbaa !123
  %60 = getelementptr inbounds i8, ptr %59, i64 0
  store i8 1, ptr %60, align 1, !tbaa !127
  br label %61

61:                                               ; preds = %58, %55
  br label %62

62:                                               ; preds = %61, %45
  br label %63

63:                                               ; preds = %62
  %64 = load ptr, ptr %5, align 8, !tbaa !246
  %65 = getelementptr inbounds nuw %struct.AF_PointRec_, ptr %64, i32 1
  store ptr %65, ptr %5, align 8, !tbaa !246
  %66 = load ptr, ptr %7, align 8, !tbaa !215
  %67 = getelementptr inbounds nuw %struct.FT_Vector_, ptr %66, i32 1
  store ptr %67, ptr %7, align 8, !tbaa !215
  %68 = load ptr, ptr %8, align 8, !tbaa !123
  %69 = getelementptr inbounds nuw i8, ptr %68, i32 1
  store ptr %69, ptr %8, align 8, !tbaa !123
  br label %24, !llvm.loop !351

70:                                               ; preds = %24
  call void @llvm.lifetime.end.p0(i64 8, ptr %8) #10
  call void @llvm.lifetime.end.p0(i64 8, ptr %7) #10
  call void @llvm.lifetime.end.p0(i64 8, ptr %6) #10
  call void @llvm.lifetime.end.p0(i64 8, ptr %5) #10
  ret void
}

; Function Attrs: nounwind uwtable
define internal i32 @af_dummy_hints_apply(i32 noundef %0, ptr noundef %1, ptr noundef %2, ptr noundef %3) #0 {
  %5 = alloca i32, align 4
  %6 = alloca ptr, align 8
  %7 = alloca ptr, align 8
  %8 = alloca ptr, align 8
  %9 = alloca i32, align 4
  store i32 %0, ptr %5, align 4, !tbaa !43
  store ptr %1, ptr %6, align 8, !tbaa !48
  store ptr %2, ptr %7, align 8, !tbaa !63
  store ptr %3, ptr %8, align 8, !tbaa !3
  call void @llvm.lifetime.start.p0(i64 4, ptr %9) #10
  %10 = load i32, ptr %5, align 4, !tbaa !43
  store i32 %10, ptr %5, align 4, !tbaa !43
  %11 = load ptr, ptr %8, align 8, !tbaa !3
  store ptr %11, ptr %8, align 8, !tbaa !3
  %12 = load ptr, ptr %6, align 8, !tbaa !48
  %13 = load ptr, ptr %7, align 8, !tbaa !63
  %14 = call i32 @af_glyph_hints_reload(ptr noundef %12, ptr noundef %13)
  store i32 %14, ptr %9, align 4, !tbaa !43
  %15 = load i32, ptr %9, align 4, !tbaa !43
  %16 = icmp ne i32 %15, 0
  br i1 %16, label %20, label %17

17:                                               ; preds = %4
  %18 = load ptr, ptr %6, align 8, !tbaa !48
  %19 = load ptr, ptr %7, align 8, !tbaa !63
  call void @af_glyph_hints_save(ptr noundef %18, ptr noundef %19)
  br label %20

20:                                               ; preds = %17, %4
  %21 = load i32, ptr %9, align 4, !tbaa !43
  call void @llvm.lifetime.end.p0(i64 4, ptr %9) #10
  ret i32 %21
}