; Function Attrs: nounwind uwtable
define internal i32 @af_dummy_hints_apply(i32 %0, ptr noundef initializes((44, 48), (60, 64), (72, 76), (88, 92), (2608, 2612), (2624, 2628)) %1, ptr noundef %2, ptr readnone captures(none) %3) #0 {
  %5 = tail call fastcc i32 @af_glyph_hints_reload(ptr noundef %1, ptr noundef %2)
  %.not = icmp eq i32 %5, 0
  br i1 %.not, label %6, label %af_glyph_hints_save.exit

6:                                                ; preds = %4
  %7 = getelementptr i8, ptr %1, i64 44
  %.val = load i32, ptr %7, align 4, !tbaa !108
  %8 = getelementptr i8, ptr %1, i64 48
  %.val7 = load ptr, ptr %8, align 8, !tbaa !109
  %9 = sext i32 %.val to i64
  %10 = getelementptr inbounds %struct.AF_PointRec_, ptr %.val7, i64 %9
  %11 = icmp sgt i32 %.val, 0
  br i1 %11, label %.lr.ph.i.preheader, label %af_glyph_hints_save.exit

.lr.ph.i.preheader:                               ; preds = %6
  %12 = getelementptr i8, ptr %2, i64 16
  %.val9 = load ptr, ptr %12, align 8, !tbaa !110
  %13 = getelementptr i8, ptr %2, i64 8
  %.val8 = load ptr, ptr %13, align 8, !tbaa !112
  br label %.lr.ph.i

.lr.ph.i:                                         ; preds = %.lr.ph.i.preheader, %.lr.ph.i
  %.03.i = phi ptr [ %25, %.lr.ph.i ], [ %.val9, %.lr.ph.i.preheader ]
  %.0192.i = phi ptr [ %24, %.lr.ph.i ], [ %.val8, %.lr.ph.i.preheader ]
  %.0201.i = phi ptr [ %23, %.lr.ph.i ], [ %.val7, %.lr.ph.i.preheader ]
  %14 = getelementptr inbounds nuw i8, ptr %.0201.i, i64 32
  %15 = load i64, ptr %14, align 8, !tbaa !99
  store i64 %15, ptr %.0192.i, align 8, !tbaa !57
  %16 = getelementptr inbounds nuw i8, ptr %.0201.i, i64 40
  %17 = load i64, ptr %16, align 8, !tbaa !106
  %18 = getelementptr inbounds nuw i8, ptr %.0192.i, i64 8
  store i64 %17, ptr %18, align 8, !tbaa !52
  %19 = load i16, ptr %.0201.i, align 8, !tbaa !101
  %20 = zext i16 %19 to i32
  %21 = and i32 %20, 1
  %.not.i = icmp eq i32 %21, 0
  %22 = and i32 %20, 2
  %.not21.i = icmp eq i32 %22, 0
  %..i = select i1 %.not21.i, i8 1, i8 2
  %.sink.i = select i1 %.not.i, i8 %..i, i8 0
  store i8 %.sink.i, ptr %.03.i, align 1, !tbaa !39
  %23 = getelementptr inbounds nuw i8, ptr %.0201.i, i64 80
  %24 = getelementptr inbounds nuw i8, ptr %.0192.i, i64 16
  %25 = getelementptr inbounds nuw i8, ptr %.03.i, i64 1
  %26 = icmp ult ptr %23, %10
  br i1 %26, label %.lr.ph.i, label %af_glyph_hints_save.exit, !llvm.loop !113

af_glyph_hints_save.exit:                         ; preds = %.lr.ph.i, %6, %4
  ret i32 %5
}